; Function Attrs: mustprogress nounwind uwtable
define dso_local void @_ZN4llvm3opt3ArgC2ENS0_6OptionENS_9StringRefEjPKS1_(ptr noundef nonnull align 8 dereferenceable(88) %0, ptr %1, ptr %2, ptr %3, i64 %4, i32 noundef %5, ptr noundef %6) unnamed_addr #0 align 2 {
  store ptr %1, ptr %0, align 8
  %.sroa.23.0..sroa_idx = getelementptr inbounds i8, ptr %0, i64 8
  store ptr %2, ptr %.sroa.23.0..sroa_idx, align 8
  %8 = getelementptr inbounds nuw i8, ptr %0, i64 16
  store ptr %6, ptr %8, align 8
  %9 = getelementptr inbounds nuw i8, ptr %0, i64 24
  store ptr %3, ptr %9, align 8
  %.sroa.2.0..sroa_idx = getelementptr inbounds i8, ptr %0, i64 32
  store i64 %4, ptr %.sroa.2.0..sroa_idx, align 8
  %10 = getelementptr inbounds nuw i8, ptr %0, i64 40
  store i32 %5, ptr %10, align 8
  %11 = getelementptr inbounds nuw i8, ptr %0, i64 44
  %12 = load i8, ptr %11, align 4
  %13 = and i8 %12, -8
  store i8 %13, ptr %11, align 4
  %14 = getelementptr inbounds nuw i8, ptr %0, i64 48
  %15 = getelementptr inbounds i8, ptr %0, i64 64
  tail call void @_ZN4llvm15SmallVectorBaseIjEC2EPvm(ptr noundef nonnull align 8 dereferenceable(16) %14, ptr noundef nonnull %15, i64 noundef 2) #9
  %16 = getelementptr inbounds nuw i8, ptr %0, i64 80
  store ptr null, ptr %16, align 8
  ret void
}